target datalayout = "e-m:e-p270:32:32-p271:32:32-p272:64:64-i64:64-i128:128-f80:128-n8:16:32:64-S128"
target triple = "x86_64-pc-linux-gnu"

; Function Attrs: nounwind uwtable
define i32 @ff_vvc_get_mip_size_id(i32 noundef %0, i32 noundef %1) #0 {
  %3 = alloca i32, align 4
  %4 = alloca i32, align 4
  %5 = alloca i32, align 4
  store i32 %0, ptr %4, align 4, !tbaa !4
  store i32 %1, ptr %5, align 4, !tbaa !4
  %6 = load i32, ptr %4, align 4, !tbaa !4
  %7 = icmp eq i32 %6, 4
  br i1 %7, label %8, label %12

8:                                                ; preds = %2
  %9 = load i32, ptr %5, align 4, !tbaa !4
  %10 = icmp eq i32 %9, 4
  br i1 %10, label %11, label %12

11:                                               ; preds = %8
  store i32 0, ptr %3, align 4
  br label %26

12:                                               ; preds = %8, %2
  %13 = load i32, ptr %4, align 4, !tbaa !4
  %14 = icmp eq i32 %13, 4
  br i1 %14, label %24, label %15

15:                                               ; preds = %12
  %16 = load i32, ptr %5, align 4, !tbaa !4
  %17 = icmp eq i32 %16, 4
  br i1 %17, label %24, label %18

18:                                               ; preds = %15
  %19 = load i32, ptr %4, align 4, !tbaa !4
  %20 = icmp eq i32 %19, 8
  br i1 %20, label %21, label %25

21:                                               ; preds = %18
  %22 = load i32, ptr %5, align 4, !tbaa !4
  %23 = icmp eq i32 %22, 8
  br i1 %23, label %24, label %25

24:                                               ; preds = %21, %15, %12
  store i32 1, ptr %3, align 4
  br label %26

25:                                               ; preds = %21, %18
  store i32 2, ptr %3, align 4
  br label %26

26:                                               ; preds = %25, %24, %11
  %27 = load i32, ptr %3, align 4
  ret i32 %27
}