; Function Attrs: mustprogress nofree norecurse nosync nounwind willreturn memory(none) uwtable
define range(i32 0, 3) i32 @ff_vvc_get_mip_size_id(i32 noundef %0, i32 noundef %1) local_unnamed_addr #0 {
  %3 = icmp eq i32 %0, 4
  %4 = icmp eq i32 %1, 4
  %or.cond = and i1 %3, %4
  br i1 %or.cond, label %9, label %5

5:                                                ; preds = %2
  %or.cond3 = or i1 %3, %4
  br i1 %or.cond3, label %9, label %6

6:                                                ; preds = %5
  %7 = icmp eq i32 %0, 8
  %8 = icmp eq i32 %1, 8
  %or.cond5 = and i1 %7, %8
  %spec.select = select i1 %or.cond5, i32 1, i32 2
  br label %9

9:                                                ; preds = %6, %5, %2
  %.0 = phi i32 [ 0, %2 ], [ 1, %5 ], [ %spec.select, %6 ]
  ret i32 %.0
}